; Function Attrs: null_pointer_is_valid sspstrong uwtable
define internal i32 @dissect_ros_GeneralProblem(i1 noundef zeroext %0, ptr noundef %1, i32 noundef %2, ptr noundef %3, ptr noundef %4, i32 noundef %5) #0 {
  %7 = alloca i32, align 4
  call void @llvm.lifetime.start.p0(i64 4, ptr nonnull %7) #7
  %8 = call i32 @dissect_ber_integer(i1 noundef zeroext %0, ptr noundef %3, ptr noundef %4, ptr noundef %1, i32 noundef %2, i32 noundef %5, ptr noundef nonnull %7)
  %9 = getelementptr inbounds nuw i8, ptr %3, i64 16
  %10 = load ptr, ptr %9, align 8
  %11 = getelementptr inbounds nuw i8, ptr %10, i64 8
  %12 = load ptr, ptr %11, align 8
  %13 = load i32, ptr %7, align 4
  %14 = call ptr @val_to_str(i32 noundef %13, ptr noundef nonnull @ros_GeneralProblem_vals, ptr noundef nonnull @.str.94)
  call void (ptr, i32, ptr, ...) @col_append_fstr(ptr noundef %12, i32 noundef 25, ptr noundef nonnull @.str.93, ptr noundef %14)
  call void @llvm.lifetime.end.p0(i64 4, ptr nonnull %7) #7
  ret i32 %8
}